target datalayout = "e-m:e-p270:32:32-p271:32:32-p272:64:64-i64:64-i128:128-f80:128-n8:16:32:64-S128"
target triple = "x86_64-pc-linux-gnu"

; Function Attrs: alwaysinline nounwind willreturn memory(none) uwtable
define internal i32 @av_bswap32(i32 noundef %0) #2 {
  %2 = alloca i32, align 4
  store i32 %0, ptr %2, align 4, !tbaa !9
  %3 = load i32, ptr %2, align 4, !tbaa !9
  %4 = shl i32 %3, 8
  %5 = and i32 %4, 65280
  %6 = load i32, ptr %2, align 4, !tbaa !9
  %7 = lshr i32 %6, 8
  %8 = and i32 %7, 255
  %9 = or i32 %5, %8
  %10 = shl i32 %9, 16
  %11 = load i32, ptr %2, align 4, !tbaa !9
  %12 = lshr i32 %11, 16
  %13 = shl i32 %12, 8
  %14 = and i32 %13, 65280
  %15 = load i32, ptr %2, align 4, !tbaa !9
  %16 = lshr i32 %15, 16
  %17 = lshr i32 %16, 8
  %18 = and i32 %17, 255
  %19 = or i32 %14, %18
  %20 = or i32 %10, %19
  ret i32 %20
}

; Function Attrs: inlinehint nounwind willreturn memory(none) uwtable
define internal i64 @av_bswap64(i64 noundef %0) #7 {
  %2 = alloca i64, align 8
  store i64 %0, ptr %2, align 8, !tbaa !45
  %3 = load i64, ptr %2, align 8, !tbaa !45
  %4 = trunc i64 %3 to i32
  %5 = call i32 @av_bswap32(i32 noundef %4) #13
  %6 = zext i32 %5 to i64
  %7 = shl i64 %6, 32
  %8 = load i64, ptr %2, align 8, !tbaa !45
  %9 = lshr i64 %8, 32
  %10 = trunc i64 %9 to i32
  %11 = call i32 @av_bswap32(i32 noundef %10) #13
  %12 = zext i32 %11 to i64
  %13 = or i64 %7, %12
  ret i64 %13
}

; Function Attrs: nounwind uwtable
define internal i32 @get_packetheader(ptr noundef %0, ptr noundef %1, i32 noundef %2, i64 noundef %3) #0 {
  %5 = alloca i32, align 4
  %6 = alloca ptr, align 8
  %7 = alloca ptr, align 8
  %8 = alloca i32, align 4
  %9 = alloca i64, align 8
  %10 = alloca i64, align 8
  %11 = alloca i32, align 4
  store ptr %0, ptr %6, align 8, !tbaa !35
  store ptr %1, ptr %7, align 8, !tbaa !38
  store i32 %2, ptr %8, align 4, !tbaa !9
  store i64 %3, ptr %9, align 8, !tbaa !45
  call void @llvm.lifetime.start.p0(i64 8, ptr %10) #12
  %12 = load i64, ptr %9, align 8, !tbaa !45
  %13 = call i64 @av_bswap64(i64 noundef %12) #13
  store i64 %13, ptr %9, align 8, !tbaa !45
  %14 = call i64 @ff_crc04C11DB7_update(i64 noundef 0, ptr noundef %9, i32 noundef 8)
  store i64 %14, ptr %9, align 8, !tbaa !45
  %15 = load ptr, ptr %7, align 8, !tbaa !38
  %16 = load i64, ptr %9, align 8, !tbaa !45
  call void @ffio_init_checksum(ptr noundef %15, ptr noundef @ff_crc04C11DB7_update, i64 noundef %16)
  %17 = load ptr, ptr %7, align 8, !tbaa !38
  %18 = call i64 @ffio_read_varlen(ptr noundef %17)
  store i64 %18, ptr %10, align 8, !tbaa !45
  %19 = load i64, ptr %10, align 8, !tbaa !45
  %20 = icmp sgt i64 %19, 4096
  br i1 %20, label %21, label %24

21:                                               ; preds = %4
  %22 = load ptr, ptr %7, align 8, !tbaa !38
  %23 = call i32 @avio_rb32(ptr noundef %22)
  br label %24

24:                                               ; preds = %21, %4
  %25 = load ptr, ptr %7, align 8, !tbaa !38
  %26 = call i64 @ffio_get_checksum(ptr noundef %25)
  %27 = icmp ne i64 %26, 0
  br i1 %27, label %28, label %32

28:                                               ; preds = %24
  %29 = load i64, ptr %10, align 8, !tbaa !45
  %30 = icmp sgt i64 %29, 4096
  br i1 %30, label %31, label %32

31:                                               ; preds = %28
  store i32 -1, ptr %5, align 4
  store i32 1, ptr %11, align 4
  br label %39

32:                                               ; preds = %28, %24
  %33 = load ptr, ptr %7, align 8, !tbaa !38
  %34 = load i32, ptr %8, align 4, !tbaa !9
  %35 = icmp ne i32 %34, 0
  %36 = select i1 %35, ptr @ff_crc04C11DB7_update, ptr null
  call void @ffio_init_checksum(ptr noundef %33, ptr noundef %36, i64 noundef 0)
  %37 = load i64, ptr %10, align 8, !tbaa !45
  %38 = trunc i64 %37 to i32
  store i32 %38, ptr %5, align 4
  store i32 1, ptr %11, align 4
  br label %39

39:                                               ; preds = %32, %31
  call void @llvm.lifetime.end.p0(i64 8, ptr %10) #12
  %40 = load i32, ptr %5, align 4
  ret i32 %40
}