; Function Attrs: nounwind uwtable
define internal fastcc i32 @get_packetheader(ptr noundef %0, i32 noundef range(i32 0, 2) %1, i64 noundef %2) unnamed_addr #1 {
  %4 = alloca i64, align 8
  %5 = tail call noundef i64 @llvm.bswap.i64(i64 %2)
  store i64 %5, ptr %4, align 8, !tbaa !110
  %6 = call i64 @ff_crc04C11DB7_update(i64 noundef 0, ptr noundef nonnull %4, i32 noundef 8) #12
  store i64 %6, ptr %4, align 8, !tbaa !110
  call void @ffio_init_checksum(ptr noundef %0, ptr noundef nonnull @ff_crc04C11DB7_update, i64 noundef %6) #12
  %7 = call i64 @ffio_read_varlen(ptr noundef %0) #12
  %8 = icmp sgt i64 %7, 4096
  br i1 %8, label %10, label %.thread

.thread:                                          ; preds = %3
  %9 = call i64 @ffio_get_checksum(ptr noundef %0) #12
  br label %13

10:                                               ; preds = %3
  %11 = call i32 @avio_rb32(ptr noundef %0) #12
  %12 = call i64 @ffio_get_checksum(ptr noundef %0) #12
  %.not2 = icmp eq i64 %12, 0
  br i1 %.not2, label %13, label %16

13:                                               ; preds = %.thread, %10
  %.not = icmp eq i32 %1, 0
  %14 = select i1 %.not, ptr null, ptr @ff_crc04C11DB7_update
  call void @ffio_init_checksum(ptr noundef %0, ptr noundef %14, i64 noundef 0) #12
  %15 = trunc i64 %7 to i32
  br label %16

16:                                               ; preds = %10, %13
  %.0 = phi i32 [ %15, %13 ], [ -1, %10 ]
  ret i32 %.0
}